target datalayout = "e-m:e-p270:32:32-p271:32:32-p272:64:64-i64:64-i128:128-f80:128-n8:16:32:64-S128"
target triple = "x86_64-pc-linux-gnu"

%struct.UNewTrie = type { [34848 x i32], ptr, i32, i32, i32, i32, i8, i8, i8, i8, [34849 x i32] }

; Function Attrs: mustprogress uwtable
define void @utrie_close_77(ptr noundef %0) #0 {
  %2 = alloca ptr, align 8
  store ptr %0, ptr %2, align 8, !tbaa !3
  %3 = load ptr, ptr %2, align 8, !tbaa !3
  %4 = icmp ne ptr %3, null
  br i1 %4, label %5, label %24

5:                                                ; preds = %1
  %6 = load ptr, ptr %2, align 8, !tbaa !3
  %7 = getelementptr inbounds nuw %struct.UNewTrie, ptr %6, i32 0, i32 7
  %8 = load i8, ptr %7, align 1, !tbaa !16
  %9 = icmp ne i8 %8, 0
  br i1 %9, label %10, label %16

10:                                               ; preds = %5
  %11 = load ptr, ptr %2, align 8, !tbaa !3
  %12 = getelementptr inbounds nuw %struct.UNewTrie, ptr %11, i32 0, i32 1
  %13 = load ptr, ptr %12, align 8, !tbaa !15
  call void @uprv_free_77(ptr noundef %13)
  %14 = load ptr, ptr %2, align 8, !tbaa !3
  %15 = getelementptr inbounds nuw %struct.UNewTrie, ptr %14, i32 0, i32 1
  store ptr null, ptr %15, align 8, !tbaa !15
  br label %16

16:                                               ; preds = %10, %5
  %17 = load ptr, ptr %2, align 8, !tbaa !3
  %18 = getelementptr inbounds nuw %struct.UNewTrie, ptr %17, i32 0, i32 6
  %19 = load i8, ptr %18, align 8, !tbaa !13
  %20 = icmp ne i8 %19, 0
  br i1 %20, label %21, label %23

21:                                               ; preds = %16
  %22 = load ptr, ptr %2, align 8, !tbaa !3
  call void @uprv_free_77(ptr noundef %22)
  br label %23

23:                                               ; preds = %21, %16
  br label %24

24:                                               ; preds = %23, %1
  ret void
}