; Function Attrs: mustprogress uwtable
define void @utrie_close_77(ptr noundef %0) local_unnamed_addr #0 {
  %.not = icmp eq ptr %0, null
  br i1 %.not, label %12, label %2

2:                                                ; preds = %1
  %3 = getelementptr inbounds nuw i8, ptr %0, i64 139417
  %4 = load i8, ptr %3, align 1, !tbaa !11
  %.not6 = icmp eq i8 %4, 0
  br i1 %.not6, label %8, label %5

5:                                                ; preds = %2
  %6 = getelementptr inbounds nuw i8, ptr %0, i64 139392
  %7 = load ptr, ptr %6, align 8, !tbaa !10
  tail call void @uprv_free_77(ptr noundef %7)
  store ptr null, ptr %6, align 8, !tbaa !10
  br label %8

8:                                                ; preds = %5, %2
  %9 = getelementptr inbounds nuw i8, ptr %0, i64 139416
  %10 = load i8, ptr %9, align 8, !tbaa !3
  %.not7 = icmp eq i8 %10, 0
  br i1 %.not7, label %12, label %11

11:                                               ; preds = %8
  tail call void @uprv_free_77(ptr noundef nonnull %0)
  br label %12

12:                                               ; preds = %8, %11, %1
  ret void
}